target datalayout = "e-m:e-p270:32:32-p271:32:32-p272:64:64-i64:64-i128:128-f80:128-n8:16:32:64-S128"
target triple = "x86_64-pc-linux-gnu"

%struct.Abc_Ntk_t_ = type { i32, i32, ptr, ptr, ptr, ptr, ptr, ptr, ptr, ptr, ptr, ptr, ptr, [11 x i32], i32, i32, i32, i32, ptr, i32, ptr, ptr, i32, i32, i32, double, i32, %struct.Vec_Int_t_, ptr, ptr, ptr, ptr, ptr, float, i32, ptr, ptr, ptr, ptr, ptr, ptr, ptr, ptr, ptr, ptr, ptr, ptr, ptr, ptr, ptr, ptr, ptr, ptr, ptr, ptr, ptr }
%struct.Vec_Int_t_ = type { i32, i32, ptr }
%struct.Abc_Obj_t_ = type { ptr, ptr, i32, i32, %struct.Vec_Int_t_, %struct.Vec_Int_t_, %union.anon, %union.anon.0 }
%union.anon = type { ptr }
%union.anon.0 = type { ptr }
%struct.Vec_Ptr_t_ = type { i32, i32, ptr }
%struct.Aig_Obj_t_ = type { %union.anon.1, ptr, ptr, i64, i32, i32, %union.anon.2 }
%union.anon.1 = type { ptr }
%union.anon.2 = type { ptr }

; Function Attrs: nounwind uwtable
define internal ptr @Vec_PtrEntry(ptr noundef %0, i32 noundef %1) #0 {
  %3 = alloca ptr, align 8
  %4 = alloca i32, align 4
  store ptr %0, ptr %3, align 8
  store i32 %1, ptr %4, align 4
  %5 = load ptr, ptr %3, align 8
  %6 = getelementptr inbounds %struct.Vec_Ptr_t_, ptr %5, i32 0, i32 2
  %7 = load ptr, ptr %6, align 8
  %8 = load i32, ptr %4, align 4
  %9 = sext i32 %8 to i64
  %10 = getelementptr inbounds ptr, ptr %7, i64 %9
  %11 = load ptr, ptr %10, align 8
  ret ptr %11
}

; Function Attrs: nounwind uwtable
define internal void @Vec_IntFree(ptr noundef %0) #0 {
  %2 = alloca ptr, align 8
  store ptr %0, ptr %2, align 8
  %3 = load ptr, ptr %2, align 8
  %4 = getelementptr inbounds %struct.Vec_Int_t_, ptr %3, i32 0, i32 2
  %5 = load ptr, ptr %4, align 8
  %6 = icmp ne ptr %5, null
  br i1 %6, label %7, label %13

7:                                                ; preds = %1
  %8 = load ptr, ptr %2, align 8
  %9 = getelementptr inbounds %struct.Vec_Int_t_, ptr %8, i32 0, i32 2
  %10 = load ptr, ptr %9, align 8
  call void @free(ptr noundef %10) #11
  %11 = load ptr, ptr %2, align 8
  %12 = getelementptr inbounds %struct.Vec_Int_t_, ptr %11, i32 0, i32 2
  store ptr null, ptr %12, align 8
  br label %14

13:                                               ; preds = %1
  br label %14

14:                                               ; preds = %13, %7
  %15 = load ptr, ptr %2, align 8
  %16 = icmp ne ptr %15, null
  br i1 %16, label %17, label %19

17:                                               ; preds = %14
  %18 = load ptr, ptr %2, align 8
  call void @free(ptr noundef %18) #11
  store ptr null, ptr %2, align 8
  br label %20

19:                                               ; preds = %14
  br label %20

20:                                               ; preds = %19, %17
  ret void
}

; Function Attrs: nounwind uwtable
define internal i32 @Abc_ObjFanoutNum(ptr noundef %0) #0 {
  %2 = alloca ptr, align 8
  store ptr %0, ptr %2, align 8
  %3 = load ptr, ptr %2, align 8
  %4 = getelementptr inbounds %struct.Abc_Obj_t_, ptr %3, i32 0, i32 5
  %5 = getelementptr inbounds %struct.Vec_Int_t_, ptr %4, i32 0, i32 1
  %6 = load i32, ptr %5, align 4
  ret i32 %6
}

; Function Attrs: nounwind uwtable
define internal ptr @Aig_Regular(ptr noundef %0) #0 {
  %2 = alloca ptr, align 8
  store ptr %0, ptr %2, align 8
  %3 = load ptr, ptr %2, align 8
  %4 = ptrtoint ptr %3 to i64
  %5 = and i64 %4, -2
  %6 = inttoptr i64 %5 to ptr
  ret ptr %6
}

; Function Attrs: nounwind uwtable
define internal i32 @Abc_NtkLatchNum(ptr noundef %0) #0 {
  %2 = alloca ptr, align 8
  store ptr %0, ptr %2, align 8
  %3 = load ptr, ptr %2, align 8
  %4 = getelementptr inbounds %struct.Abc_Ntk_t_, ptr %3, i32 0, i32 13
  %5 = getelementptr inbounds [11 x i32], ptr %4, i64 0, i64 8
  %6 = load i32, ptr %5, align 8
  ret i32 %6
}

; Function Attrs: nounwind uwtable
define internal i32 @Abc_ObjIsNode(ptr noundef %0) #0 {
  %2 = alloca ptr, align 8
  store ptr %0, ptr %2, align 8
  %3 = load ptr, ptr %2, align 8
  %4 = getelementptr inbounds %struct.Abc_Obj_t_, ptr %3, i32 0, i32 3
  %5 = load i32, ptr %4, align 4
  %6 = and i32 %5, 15
  %7 = icmp eq i32 %6, 7
  %8 = zext i1 %7 to i32
  ret i32 %8
}

; Function Attrs: nounwind uwtable
define internal i32 @Abc_ObjIsCi(ptr noundef %0) #0 {
  %2 = alloca ptr, align 8
  store ptr %0, ptr %2, align 8
  %3 = load ptr, ptr %2, align 8
  %4 = getelementptr inbounds %struct.Abc_Obj_t_, ptr %3, i32 0, i32 3
  %5 = load i32, ptr %4, align 4
  %6 = and i32 %5, 15
  %7 = icmp eq i32 %6, 2
  br i1 %7, label %14, label %8

8:                                                ; preds = %1
  %9 = load ptr, ptr %2, align 8
  %10 = getelementptr inbounds %struct.Abc_Obj_t_, ptr %9, i32 0, i32 3
  %11 = load i32, ptr %10, align 4
  %12 = and i32 %11, 15
  %13 = icmp eq i32 %12, 5
  br label %14

14:                                               ; preds = %8, %1
  %15 = phi i1 [ true, %1 ], [ %13, %8 ]
  %16 = zext i1 %15 to i32
  ret i32 %16
}

; Function Attrs: nounwind uwtable
define internal ptr @Abc_ObjRegular(ptr noundef %0) #0 {
  %2 = alloca ptr, align 8
  store ptr %0, ptr %2, align 8
  %3 = load ptr, ptr %2, align 8
  %4 = ptrtoint ptr %3 to i64
  %5 = and i64 %4, -2
  %6 = inttoptr i64 %5 to ptr
  ret ptr %6
}

; Function Attrs: nounwind uwtable
define internal ptr @Abc_NtkObj(ptr noundef %0, i32 noundef %1) #0 {
  %3 = alloca ptr, align 8
  %4 = alloca i32, align 4
  store ptr %0, ptr %3, align 8
  store i32 %1, ptr %4, align 4
  %5 = load ptr, ptr %3, align 8
  %6 = getelementptr inbounds %struct.Abc_Ntk_t_, ptr %5, i32 0, i32 5
  %7 = load ptr, ptr %6, align 8
  %8 = load i32, ptr %4, align 4
  %9 = call ptr @Vec_PtrEntry(ptr noundef %7, i32 noundef %8)
  ret ptr %9
}

; Function Attrs: nounwind uwtable
define internal i32 @Vec_PtrSize(ptr noundef %0) #0 {
  %2 = alloca ptr, align 8
  store ptr %0, ptr %2, align 8
  %3 = load ptr, ptr %2, align 8
  %4 = getelementptr inbounds %struct.Vec_Ptr_t_, ptr %3, i32 0, i32 1
  %5 = load i32, ptr %4, align 4
  ret i32 %5
}

; Function Attrs: nounwind uwtable
define float @Abc_NtkMfsTotalSwitching(ptr noundef %0) #0 {
  %2 = alloca ptr, align 8
  %3 = alloca ptr, align 8
  %4 = alloca ptr, align 8
  %5 = alloca ptr, align 8
  %6 = alloca ptr, align 8
  %7 = alloca ptr, align 8
  %8 = alloca ptr, align 8
  %9 = alloca ptr, align 8
  %10 = alloca float, align 4
  %11 = alloca i32, align 4
  store ptr %0, ptr %2, align 8
  store float 0.000000e+00, ptr %10, align 4
  %12 = load ptr, ptr %2, align 8
  %13 = call ptr @Abc_NtkStrash(ptr noundef %12, i32 noundef 0, i32 noundef 1, i32 noundef 0)
  store ptr %13, ptr %5, align 8
  store i32 0, ptr %11, align 4
  br label %14

14:                                               ; preds = %58, %1
  %15 = load i32, ptr %11, align 4
  %16 = load ptr, ptr %2, align 8
  %17 = getelementptr inbounds %struct.Abc_Ntk_t_, ptr %16, i32 0, i32 5
  %18 = load ptr, ptr %17, align 8
  %19 = call i32 @Vec_PtrSize(ptr noundef %18)
  %20 = icmp slt i32 %15, %19
  br i1 %20, label %21, label %25

21:                                               ; preds = %14
  %22 = load ptr, ptr %2, align 8
  %23 = load i32, ptr %11, align 4
  %24 = call ptr @Abc_NtkObj(ptr noundef %22, i32 noundef %23)
  store ptr %24, ptr %8, align 8
  br label %25

25:                                               ; preds = %21, %14
  %26 = phi i1 [ false, %14 ], [ true, %21 ]
  br i1 %26, label %27, label %61

27:                                               ; preds = %25
  %28 = load ptr, ptr %8, align 8
  %29 = icmp eq ptr %28, null
  br i1 %29, label %30, label %31

30:                                               ; preds = %27
  br label %57

31:                                               ; preds = %27
  %32 = load ptr, ptr %8, align 8
  %33 = getelementptr inbounds %struct.Abc_Obj_t_, ptr %32, i32 0, i32 7
  %34 = load ptr, ptr %33, align 8
  %35 = icmp ne ptr %34, null
  br i1 %35, label %36, label %45

36:                                               ; preds = %31
  %37 = load ptr, ptr %8, align 8
  %38 = getelementptr inbounds %struct.Abc_Obj_t_, ptr %37, i32 0, i32 7
  %39 = load ptr, ptr %38, align 8
  %40 = call ptr @Abc_ObjRegular(ptr noundef %39)
  %41 = getelementptr inbounds %struct.Abc_Obj_t_, ptr %40, i32 0, i32 3
  %42 = load i32, ptr %41, align 4
  %43 = and i32 %42, 15
  %44 = icmp eq i32 %43, 0
  br i1 %44, label %53, label %45

45:                                               ; preds = %36, %31
  %46 = load ptr, ptr %8, align 8
  %47 = call i32 @Abc_ObjIsCi(ptr noundef %46)
  %48 = icmp ne i32 %47, 0
  br i1 %48, label %56, label %49

49:                                               ; preds = %45
  %50 = load ptr, ptr %8, align 8
  %51 = call i32 @Abc_ObjIsNode(ptr noundef %50)
  %52 = icmp ne i32 %51, 0
  br i1 %52, label %56, label %53

53:                                               ; preds = %49, %36
  %54 = load ptr, ptr %8, align 8
  %55 = getelementptr inbounds %struct.Abc_Obj_t_, ptr %54, i32 0, i32 7
  store ptr null, ptr %55, align 8
  br label %56

56:                                               ; preds = %53, %49, %45
  br label %57

57:                                               ; preds = %56, %30
  br label %58

58:                                               ; preds = %57
  %59 = load i32, ptr %11, align 4
  %60 = add nsw i32 %59, 1
  store i32 %60, ptr %11, align 4
  br label %14, !llvm.loop !6

61:                                               ; preds = %25
  %62 = load ptr, ptr %5, align 8
  %63 = load ptr, ptr %2, align 8
  %64 = call i32 @Abc_NtkLatchNum(ptr noundef %63)
  %65 = icmp sgt i32 %64, 0
  %66 = zext i1 %65 to i32
  %67 = call ptr @Abc_NtkToDar(ptr noundef %62, i32 noundef 0, i32 noundef %66)
  store ptr %67, ptr %6, align 8
  %68 = load ptr, ptr %6, align 8
  %69 = call ptr @Saig_ManComputeSwitchProbs(ptr noundef %68, i32 noundef 48, i32 noundef 16, i32 noundef 0)
  store ptr %69, ptr %3, align 8
  %70 = load ptr, ptr %3, align 8
  %71 = getelementptr inbounds %struct.Vec_Int_t_, ptr %70, i32 0, i32 2
  %72 = load ptr, ptr %71, align 8
  store ptr %72, ptr %4, align 8
  store i32 0, ptr %11, align 4
  br label %73

73:                                               ; preds = %117, %61
  %74 = load i32, ptr %11, align 4
  %75 = load ptr, ptr %2, align 8
  %76 = getelementptr inbounds %struct.Abc_Ntk_t_, ptr %75, i32 0, i32 5
  %77 = load ptr, ptr %76, align 8
  %78 = call i32 @Vec_PtrSize(ptr noundef %77)
  %79 = icmp slt i32 %74, %78
  br i1 %79, label %80, label %84

80:                                               ; preds = %73
  %81 = load ptr, ptr %2, align 8
  %82 = load i32, ptr %11, align 4
  %83 = call ptr @Abc_NtkObj(ptr noundef %81, i32 noundef %82)
  store ptr %83, ptr %8, align 8
  br label %84

84:                                               ; preds = %80, %73
  %85 = phi i1 [ false, %73 ], [ true, %80 ]
  br i1 %85, label %86, label %120

86:                                               ; preds = %84
  %87 = load ptr, ptr %8, align 8
  %88 = icmp eq ptr %87, null
  br i1 %88, label %89, label %90

89:                                               ; preds = %86
  br label %116

90:                                               ; preds = %86
  %91 = load ptr, ptr %8, align 8
  %92 = getelementptr inbounds %struct.Abc_Obj_t_, ptr %91, i32 0, i32 7
  %93 = load ptr, ptr %92, align 8
  %94 = call ptr @Abc_ObjRegular(ptr noundef %93)
  store ptr %94, ptr %9, align 8
  %95 = icmp ne ptr %94, null
  br i1 %95, label %96, label %115

96:                                               ; preds = %90
  %97 = load ptr, ptr %9, align 8
  %98 = getelementptr inbounds %struct.Abc_Obj_t_, ptr %97, i32 0, i32 7
  %99 = load ptr, ptr %98, align 8
  %100 = call ptr @Aig_Regular(ptr noundef %99)
  store ptr %100, ptr %7, align 8
  %101 = icmp ne ptr %100, null
  br i1 %101, label %102, label %115

102:                                              ; preds = %96
  %103 = load ptr, ptr %8, align 8
  %104 = call i32 @Abc_ObjFanoutNum(ptr noundef %103)
  %105 = sitofp i32 %104 to float
  %106 = load ptr, ptr %4, align 8
  %107 = load ptr, ptr %7, align 8
  %108 = getelementptr inbounds %struct.Aig_Obj_t_, ptr %107, i32 0, i32 5
  %109 = load i32, ptr %108, align 4
  %110 = sext i32 %109 to i64
  %111 = getelementptr inbounds float, ptr %106, i64 %110
  %112 = load float, ptr %111, align 4
  %113 = load float, ptr %10, align 4
  %114 = call float @llvm.fmuladd.f32(float %105, float %112, float %113)
  store float %114, ptr %10, align 4
  br label %115

115:                                              ; preds = %102, %96, %90
  br label %116

116:                                              ; preds = %115, %89
  br label %117

117:                                              ; preds = %116
  %118 = load i32, ptr %11, align 4
  %119 = add nsw i32 %118, 1
  store i32 %119, ptr %11, align 4
  br label %73, !llvm.loop !7

120:                                              ; preds = %84
  %121 = load ptr, ptr %3, align 8
  call void @Vec_IntFree(ptr noundef %121)
  %122 = load ptr, ptr %6, align 8
  call void @Aig_ManStop(ptr noundef %122)
  %123 = load ptr, ptr %5, align 8
  call void @Abc_NtkDelete(ptr noundef %123)
  %124 = load float, ptr %10, align 4
  ret float %124
}