; Function Attrs: nounwind uwtable
define float @Abc_NtkMfsTotalSwitching(ptr noundef %0) local_unnamed_addr #0 {
  %2 = tail call ptr @Abc_NtkStrash(ptr noundef %0, i32 noundef 0, i32 noundef 1, i32 noundef 0) #19
  %3 = getelementptr inbounds nuw i8, ptr %0, i64 32
  %4 = load ptr, ptr %3, align 8
  %5 = getelementptr i8, ptr %4, i64 4
  %.val4554 = load i32, ptr %5, align 4
  %6 = icmp sgt i32 %.val4554, 0
  br i1 %6, label %.lr.ph, label %.critedge

.lr.ph:                                           ; preds = %1, %27
  %7 = phi ptr [ %28, %27 ], [ %4, %1 ]
  %indvars.iv = phi i64 [ %indvars.iv.next, %27 ], [ 0, %1 ]
  %8 = getelementptr i8, ptr %7, i64 8
  %.val47.val = load ptr, ptr %8, align 8
  %9 = getelementptr inbounds nuw ptr, ptr %.val47.val, i64 %indvars.iv
  %10 = load ptr, ptr %9, align 8
  %11 = icmp eq ptr %10, null
  br i1 %11, label %27, label %12

12:                                               ; preds = %.lr.ph
  %13 = getelementptr inbounds nuw i8, ptr %10, i64 64
  %14 = load ptr, ptr %13, align 8
  %.not41 = icmp eq ptr %14, null
  br i1 %.not41, label %23, label %15

15:                                               ; preds = %12
  %16 = ptrtoint ptr %14 to i64
  %17 = and i64 %16, -2
  %18 = inttoptr i64 %17 to ptr
  %19 = getelementptr inbounds nuw i8, ptr %18, i64 20
  %20 = load i32, ptr %19, align 4
  %21 = and i32 %20, 15
  %22 = icmp eq i32 %21, 0
  br i1 %22, label %26, label %23

23:                                               ; preds = %15, %12
  %24 = getelementptr i8, ptr %10, i64 20
  %.val48 = load i32, ptr %24, align 4
  %25 = and i32 %.val48, 15
  switch i32 %25, label %26 [
    i32 5, label %27
    i32 2, label %27
    i32 7, label %27
  ]

26:                                               ; preds = %23, %15
  store ptr null, ptr %13, align 8
  %.pre = load ptr, ptr %3, align 8
  br label %27

27:                                               ; preds = %23, %23, %23, %.lr.ph, %26
  %28 = phi ptr [ %7, %23 ], [ %7, %23 ], [ %7, %23 ], [ %7, %.lr.ph ], [ %.pre, %26 ]
  %indvars.iv.next = add nuw nsw i64 %indvars.iv, 1
  %29 = getelementptr i8, ptr %28, i64 4
  %.val45 = load i32, ptr %29, align 4
  %30 = sext i32 %.val45 to i64
  %31 = icmp slt i64 %indvars.iv.next, %30
  br i1 %31, label %.lr.ph, label %.critedge, !llvm.loop !6

.critedge:                                        ; preds = %27, %1
  %32 = getelementptr i8, ptr %0, i64 128
  %.val = load i32, ptr %32, align 8
  %33 = icmp sgt i32 %.val, 0
  %34 = zext i1 %33 to i32
  %35 = tail call ptr @Abc_NtkToDar(ptr noundef %2, i32 noundef 0, i32 noundef %34) #19
  %36 = tail call ptr @Saig_ManComputeSwitchProbs(ptr noundef %35, i32 noundef 48, i32 noundef 16, i32 noundef 0) #19
  %37 = getelementptr inbounds nuw i8, ptr %36, i64 8
  %38 = load ptr, ptr %37, align 8
  %39 = load ptr, ptr %3, align 8
  %40 = getelementptr i8, ptr %39, i64 4
  %.val44 = load i32, ptr %40, align 4
  %41 = icmp sgt i32 %.val44, 0
  br i1 %41, label %.lr.ph58, label %.critedge2

.lr.ph58:                                         ; preds = %.critedge
  %42 = getelementptr i8, ptr %39, i64 8
  %.val46.val = load ptr, ptr %42, align 8
  %wide.trip.count = zext nneg i32 %.val44 to i64
  br label %43

43:                                               ; preds = %.lr.ph58, %68
  %indvars.iv60 = phi i64 [ 0, %.lr.ph58 ], [ %indvars.iv.next61, %68 ]
  %.03356 = phi float [ 0.000000e+00, %.lr.ph58 ], [ %.134, %68 ]
  %44 = getelementptr inbounds nuw ptr, ptr %.val46.val, i64 %indvars.iv60
  %45 = load ptr, ptr %44, align 8
  %46 = icmp eq ptr %45, null
  br i1 %46, label %68, label %47

47:                                               ; preds = %43
  %48 = getelementptr inbounds nuw i8, ptr %45, i64 64
  %49 = load ptr, ptr %48, align 8
  %50 = ptrtoint ptr %49 to i64
  %51 = and i64 %50, -2
  %.not = icmp eq i64 %51, 0
  br i1 %.not, label %68, label %52

52:                                               ; preds = %47
  %53 = inttoptr i64 %51 to ptr
  %54 = getelementptr inbounds nuw i8, ptr %53, i64 64
  %55 = load ptr, ptr %54, align 8
  %56 = ptrtoint ptr %55 to i64
  %57 = and i64 %56, -2
  %.not40 = icmp eq i64 %57, 0
  br i1 %.not40, label %68, label %58

58:                                               ; preds = %52
  %59 = inttoptr i64 %57 to ptr
  %60 = getelementptr i8, ptr %45, i64 44
  %.val50 = load i32, ptr %60, align 4
  %61 = sitofp i32 %.val50 to float
  %62 = getelementptr inbounds nuw i8, ptr %59, i64 36
  %63 = load i32, ptr %62, align 4
  %64 = sext i32 %63 to i64
  %65 = getelementptr inbounds float, ptr %38, i64 %64
  %66 = load float, ptr %65, align 4
  %67 = tail call float @llvm.fmuladd.f32(float %61, float %66, float %.03356)
  br label %68

68:                                               ; preds = %43, %58, %52, %47
  %.134 = phi float [ %.03356, %43 ], [ %67, %58 ], [ %.03356, %52 ], [ %.03356, %47 ]
  %indvars.iv.next61 = add nuw nsw i64 %indvars.iv60, 1
  %exitcond.not = icmp eq i64 %indvars.iv.next61, %wide.trip.count
  br i1 %exitcond.not, label %.critedge2, label %43, !llvm.loop !7

.critedge2:                                       ; preds = %68, %.critedge
  %.033.lcssa = phi float [ 0.000000e+00, %.critedge ], [ %.134, %68 ]
  %.not.i = icmp eq ptr %38, null
  br i1 %.not.i, label %Vec_IntFree.exit, label %69

69:                                               ; preds = %.critedge2
  tail call void @free(ptr noundef nonnull %38) #19
  br label %Vec_IntFree.exit

Vec_IntFree.exit:                                 ; preds = %.critedge2, %69
  tail call void @free(ptr noundef nonnull %36) #19
  tail call void @Aig_ManStop(ptr noundef %35) #19
  tail call void @Abc_NtkDelete(ptr noundef %2) #19
  ret float %.033.lcssa
}